; Function Attrs: mustprogress nofree nounwind uwtable
define void @_ZNK8tinyxml211XMLDocument10PrintErrorEv(ptr noundef nonnull align 8 captures(none) dereferenceable(776) %0) local_unnamed_addr #14 align 2 {
  %2 = getelementptr inbounds nuw i8, ptr %0, i64 128
  %3 = load ptr, ptr %2, align 8, !tbaa !10
  %4 = getelementptr inbounds nuw i8, ptr %0, i64 136
  %5 = load ptr, ptr %4, align 8, !tbaa !11
  %6 = icmp eq ptr %3, %5
  br i1 %6, label %_ZNK8tinyxml211XMLDocument8ErrorStrEv.exit, label %7

7:                                                ; preds = %1
  %8 = getelementptr inbounds nuw i8, ptr %0, i64 120
  %9 = tail call noundef ptr @_ZN8tinyxml27StrPair6GetStrEv(ptr noundef nonnull align 8 dereferenceable(24) %8)
  br label %_ZNK8tinyxml211XMLDocument8ErrorStrEv.exit

_ZNK8tinyxml211XMLDocument8ErrorStrEv.exit:       ; preds = %1, %7
  %10 = phi ptr [ %9, %7 ], [ @.str.54, %1 ]
  %puts = tail call i32 @puts(ptr nonnull dereferenceable(1) %10)
  ret void
}